target datalayout = "e-m:e-p270:32:32-p271:32:32-p272:64:64-i64:64-i128:128-f80:128-n8:16:32:64-S128"
target triple = "x86_64-pc-linux-gnu"

%struct.hwloc_topology = type { i32, i32, i32, ptr, ptr, i64, [20 x i32], [20 x i32], i64, i64, i32, ptr, i64, ptr, i64, [6 x %struct.hwloc_special_level_s], ptr, ptr, %struct.hwloc_binding_hooks, %struct.hwloc_topology_support, %struct.hwloc_infos_s, ptr, ptr, i32, ptr, ptr, i32, i32, ptr, i32, i32, ptr, i32, i32, i32, [5 x float], i32, ptr, ptr, i32, i32, ptr, i32, %struct.hwloc_numanode_attr_s, i32, i32, ptr, i64, i32, ptr, ptr, ptr }
%struct.hwloc_special_level_s = type { i32, ptr, ptr, ptr }
%struct.hwloc_binding_hooks = type { ptr, ptr, ptr, ptr, ptr, ptr, ptr, ptr, ptr, ptr, ptr, ptr, ptr, ptr, ptr, ptr, ptr, ptr, ptr, ptr, ptr, ptr, ptr, ptr }
%struct.hwloc_topology_support = type { ptr, ptr, ptr, ptr }
%struct.hwloc_infos_s = type { ptr, i32, i32 }
%struct.hwloc_numanode_attr_s = type { i64, i32, ptr }
%struct.hwloc_internal_cpukind_s = type { ptr, i32, i32, i64, %struct.hwloc_infos_s }
%struct.hwloc_cpukinds_info_summary = type { i32, i32, i32, ptr }
%struct.hwloc_info_s = type { ptr, ptr }
%struct.hwloc_cpukind_info_summary = type { i32, i32, i32 }

@.str.18 = private unnamed_addr constant [16 x i8] c"FrequencyMaxMHz\00", align 1
@.str.19 = private unnamed_addr constant [17 x i8] c"FrequencyBaseMHz\00", align 1
@.str.20 = private unnamed_addr constant [9 x i8] c"CoreType\00", align 1
@.str.21 = private unnamed_addr constant [10 x i8] c"IntelAtom\00", align 1
@.str.22 = private unnamed_addr constant [10 x i8] c"IntelCore\00", align 1
@.str.23 = private unnamed_addr constant [61 x i8] c"cpukind #%u has intel_core_type %u max_freq %u base_freq %u\0A\00", align 1

; Function Attrs: inlinehint nounwind uwtable
define internal void @hwloc_debug(ptr noundef %0, ...) #4 {
  %2 = alloca ptr, align 8
  store ptr %0, ptr %2, align 8, !tbaa !55
  ret void
}

; Function Attrs: inlinehint nounwind willreturn memory(read) uwtable
define available_externally i32 @atoi(ptr noundef nonnull %0) #6 {
  %2 = alloca ptr, align 8
  store ptr %0, ptr %2, align 8, !tbaa !55
  %3 = load ptr, ptr %2, align 8, !tbaa !55
  %4 = call i64 @strtol(ptr noundef %3, ptr noundef null, i32 noundef 10) #14
  %5 = trunc i64 %4 to i32
  ret i32 %5
}

; Function Attrs: nounwind uwtable
define internal void @hwloc__cpukinds_summarize_info(ptr noundef %0, ptr noundef %1) #0 {
  %3 = alloca ptr, align 8
  %4 = alloca ptr, align 8
  %5 = alloca i32, align 4
  %6 = alloca i32, align 4
  %7 = alloca ptr, align 8
  %8 = alloca ptr, align 8
  store ptr %0, ptr %3, align 8, !tbaa !3
  store ptr %1, ptr %4, align 8, !tbaa !76
  call void @llvm.lifetime.start.p0(i64 4, ptr %5) #14
  call void @llvm.lifetime.start.p0(i64 4, ptr %6) #14
  %9 = load ptr, ptr %4, align 8, !tbaa !76
  %10 = getelementptr inbounds nuw %struct.hwloc_cpukinds_info_summary, ptr %9, i32 0, i32 0
  store i32 1, ptr %10, align 8, !tbaa !78
  %11 = load ptr, ptr %4, align 8, !tbaa !76
  %12 = getelementptr inbounds nuw %struct.hwloc_cpukinds_info_summary, ptr %11, i32 0, i32 1
  store i32 1, ptr %12, align 4, !tbaa !79
  %13 = load ptr, ptr %4, align 8, !tbaa !76
  %14 = getelementptr inbounds nuw %struct.hwloc_cpukinds_info_summary, ptr %13, i32 0, i32 2
  store i32 1, ptr %14, align 8, !tbaa !80
  store i32 0, ptr %5, align 4, !tbaa !35
  br label %15

15:                                               ; preds = %185, %2
  %16 = load i32, ptr %5, align 4, !tbaa !35
  %17 = load ptr, ptr %3, align 8, !tbaa !3
  %18 = getelementptr inbounds nuw %struct.hwloc_topology, ptr %17, i32 0, i32 29
  %19 = load i32, ptr %18, align 8, !tbaa !33
  %20 = icmp ult i32 %16, %19
  br i1 %20, label %21, label %188

21:                                               ; preds = %15
  call void @llvm.lifetime.start.p0(i64 8, ptr %7) #14
  %22 = load ptr, ptr %3, align 8, !tbaa !3
  %23 = getelementptr inbounds nuw %struct.hwloc_topology, ptr %22, i32 0, i32 31
  %24 = load ptr, ptr %23, align 8, !tbaa !8
  %25 = load i32, ptr %5, align 4, !tbaa !35
  %26 = zext i32 %25 to i64
  %27 = getelementptr inbounds nuw %struct.hwloc_internal_cpukind_s, ptr %24, i64 %26
  store ptr %27, ptr %7, align 8, !tbaa !36
  store i32 0, ptr %6, align 4, !tbaa !35
  br label %28

28:                                               ; preds = %117, %21
  %29 = load i32, ptr %6, align 4, !tbaa !35
  %30 = load ptr, ptr %7, align 8, !tbaa !36
  %31 = getelementptr inbounds nuw %struct.hwloc_internal_cpukind_s, ptr %30, i32 0, i32 4
  %32 = getelementptr inbounds nuw %struct.hwloc_infos_s, ptr %31, i32 0, i32 1
  %33 = load i32, ptr %32, align 8, !tbaa !81
  %34 = icmp ult i32 %29, %33
  br i1 %34, label %35, label %120

35:                                               ; preds = %28
  call void @llvm.lifetime.start.p0(i64 8, ptr %8) #14
  %36 = load ptr, ptr %7, align 8, !tbaa !36
  %37 = getelementptr inbounds nuw %struct.hwloc_internal_cpukind_s, ptr %36, i32 0, i32 4
  %38 = getelementptr inbounds nuw %struct.hwloc_infos_s, ptr %37, i32 0, i32 0
  %39 = load ptr, ptr %38, align 8, !tbaa !82
  %40 = load i32, ptr %6, align 4, !tbaa !35
  %41 = zext i32 %40 to i64
  %42 = getelementptr inbounds nuw %struct.hwloc_info_s, ptr %39, i64 %41
  store ptr %42, ptr %8, align 8, !tbaa !83
  %43 = load ptr, ptr %8, align 8, !tbaa !83
  %44 = getelementptr inbounds nuw %struct.hwloc_info_s, ptr %43, i32 0, i32 0
  %45 = load ptr, ptr %44, align 8, !tbaa !71
  %46 = call i32 @strcmp(ptr noundef %45, ptr noundef @.str.18) #16
  %47 = icmp ne i32 %46, 0
  br i1 %47, label %60, label %48

48:                                               ; preds = %35
  %49 = load ptr, ptr %8, align 8, !tbaa !83
  %50 = getelementptr inbounds nuw %struct.hwloc_info_s, ptr %49, i32 0, i32 1
  %51 = load ptr, ptr %50, align 8, !tbaa !73
  %52 = call i32 @atoi(ptr noundef %51) #16
  %53 = load ptr, ptr %4, align 8, !tbaa !76
  %54 = getelementptr inbounds nuw %struct.hwloc_cpukinds_info_summary, ptr %53, i32 0, i32 3
  %55 = load ptr, ptr %54, align 8, !tbaa !58
  %56 = load i32, ptr %5, align 4, !tbaa !35
  %57 = zext i32 %56 to i64
  %58 = getelementptr inbounds nuw %struct.hwloc_cpukind_info_summary, ptr %55, i64 %57
  %59 = getelementptr inbounds nuw %struct.hwloc_cpukind_info_summary, ptr %58, i32 0, i32 1
  store i32 %52, ptr %59, align 4, !tbaa !84
  br label %116

60:                                               ; preds = %35
  %61 = load ptr, ptr %8, align 8, !tbaa !83
  %62 = getelementptr inbounds nuw %struct.hwloc_info_s, ptr %61, i32 0, i32 0
  %63 = load ptr, ptr %62, align 8, !tbaa !71
  %64 = call i32 @strcmp(ptr noundef %63, ptr noundef @.str.19) #16
  %65 = icmp ne i32 %64, 0
  br i1 %65, label %78, label %66

66:                                               ; preds = %60
  %67 = load ptr, ptr %8, align 8, !tbaa !83
  %68 = getelementptr inbounds nuw %struct.hwloc_info_s, ptr %67, i32 0, i32 1
  %69 = load ptr, ptr %68, align 8, !tbaa !73
  %70 = call i32 @atoi(ptr noundef %69) #16
  %71 = load ptr, ptr %4, align 8, !tbaa !76
  %72 = getelementptr inbounds nuw %struct.hwloc_cpukinds_info_summary, ptr %71, i32 0, i32 3
  %73 = load ptr, ptr %72, align 8, !tbaa !58
  %74 = load i32, ptr %5, align 4, !tbaa !35
  %75 = zext i32 %74 to i64
  %76 = getelementptr inbounds nuw %struct.hwloc_cpukind_info_summary, ptr %73, i64 %75
  %77 = getelementptr inbounds nuw %struct.hwloc_cpukind_info_summary, ptr %76, i32 0, i32 2
  store i32 %70, ptr %77, align 4, !tbaa !86
  br label %115

78:                                               ; preds = %60
  %79 = load ptr, ptr %8, align 8, !tbaa !83
  %80 = getelementptr inbounds nuw %struct.hwloc_info_s, ptr %79, i32 0, i32 0
  %81 = load ptr, ptr %80, align 8, !tbaa !71
  %82 = call i32 @strcmp(ptr noundef %81, ptr noundef @.str.20) #16
  %83 = icmp ne i32 %82, 0
  br i1 %83, label %114, label %84

84:                                               ; preds = %78
  %85 = load ptr, ptr %8, align 8, !tbaa !83
  %86 = getelementptr inbounds nuw %struct.hwloc_info_s, ptr %85, i32 0, i32 1
  %87 = load ptr, ptr %86, align 8, !tbaa !73
  %88 = call i32 @strcmp(ptr noundef %87, ptr noundef @.str.21) #16
  %89 = icmp ne i32 %88, 0
  br i1 %89, label %98, label %90

90:                                               ; preds = %84
  %91 = load ptr, ptr %4, align 8, !tbaa !76
  %92 = getelementptr inbounds nuw %struct.hwloc_cpukinds_info_summary, ptr %91, i32 0, i32 3
  %93 = load ptr, ptr %92, align 8, !tbaa !58
  %94 = load i32, ptr %5, align 4, !tbaa !35
  %95 = zext i32 %94 to i64
  %96 = getelementptr inbounds nuw %struct.hwloc_cpukind_info_summary, ptr %93, i64 %95
  %97 = getelementptr inbounds nuw %struct.hwloc_cpukind_info_summary, ptr %96, i32 0, i32 0
  store i32 1, ptr %97, align 4, !tbaa !87
  br label %113

98:                                               ; preds = %84
  %99 = load ptr, ptr %8, align 8, !tbaa !83
  %100 = getelementptr inbounds nuw %struct.hwloc_info_s, ptr %99, i32 0, i32 1
  %101 = load ptr, ptr %100, align 8, !tbaa !73
  %102 = call i32 @strcmp(ptr noundef %101, ptr noundef @.str.22) #16
  %103 = icmp ne i32 %102, 0
  br i1 %103, label %112, label %104

104:                                              ; preds = %98
  %105 = load ptr, ptr %4, align 8, !tbaa !76
  %106 = getelementptr inbounds nuw %struct.hwloc_cpukinds_info_summary, ptr %105, i32 0, i32 3
  %107 = load ptr, ptr %106, align 8, !tbaa !58
  %108 = load i32, ptr %5, align 4, !tbaa !35
  %109 = zext i32 %108 to i64
  %110 = getelementptr inbounds nuw %struct.hwloc_cpukind_info_summary, ptr %107, i64 %109
  %111 = getelementptr inbounds nuw %struct.hwloc_cpukind_info_summary, ptr %110, i32 0, i32 0
  store i32 2, ptr %111, align 4, !tbaa !87
  br label %112

112:                                              ; preds = %104, %98
  br label %113

113:                                              ; preds = %112, %90
  br label %114

114:                                              ; preds = %113, %78
  br label %115

115:                                              ; preds = %114, %66
  br label %116

116:                                              ; preds = %115, %48
  call void @llvm.lifetime.end.p0(i64 8, ptr %8) #14
  br label %117

117:                                              ; preds = %116
  %118 = load i32, ptr %6, align 4, !tbaa !35
  %119 = add i32 %118, 1
  store i32 %119, ptr %6, align 4, !tbaa !35
  br label %28, !llvm.loop !88

120:                                              ; preds = %28
  %121 = load i32, ptr %5, align 4, !tbaa !35
  %122 = load ptr, ptr %4, align 8, !tbaa !76
  %123 = getelementptr inbounds nuw %struct.hwloc_cpukinds_info_summary, ptr %122, i32 0, i32 3
  %124 = load ptr, ptr %123, align 8, !tbaa !58
  %125 = load i32, ptr %5, align 4, !tbaa !35
  %126 = zext i32 %125 to i64
  %127 = getelementptr inbounds nuw %struct.hwloc_cpukind_info_summary, ptr %124, i64 %126
  %128 = getelementptr inbounds nuw %struct.hwloc_cpukind_info_summary, ptr %127, i32 0, i32 0
  %129 = load i32, ptr %128, align 4, !tbaa !87
  %130 = load ptr, ptr %4, align 8, !tbaa !76
  %131 = getelementptr inbounds nuw %struct.hwloc_cpukinds_info_summary, ptr %130, i32 0, i32 3
  %132 = load ptr, ptr %131, align 8, !tbaa !58
  %133 = load i32, ptr %5, align 4, !tbaa !35
  %134 = zext i32 %133 to i64
  %135 = getelementptr inbounds nuw %struct.hwloc_cpukind_info_summary, ptr %132, i64 %134
  %136 = getelementptr inbounds nuw %struct.hwloc_cpukind_info_summary, ptr %135, i32 0, i32 1
  %137 = load i32, ptr %136, align 4, !tbaa !84
  %138 = load ptr, ptr %4, align 8, !tbaa !76
  %139 = getelementptr inbounds nuw %struct.hwloc_cpukinds_info_summary, ptr %138, i32 0, i32 3
  %140 = load ptr, ptr %139, align 8, !tbaa !58
  %141 = load i32, ptr %5, align 4, !tbaa !35
  %142 = zext i32 %141 to i64
  %143 = getelementptr inbounds nuw %struct.hwloc_cpukind_info_summary, ptr %140, i64 %142
  %144 = getelementptr inbounds nuw %struct.hwloc_cpukind_info_summary, ptr %143, i32 0, i32 2
  %145 = load i32, ptr %144, align 4, !tbaa !86
  call void (ptr, ...) @hwloc_debug(ptr noundef @.str.23, i32 noundef %121, i32 noundef %129, i32 noundef %137, i32 noundef %145)
  %146 = load ptr, ptr %4, align 8, !tbaa !76
  %147 = getelementptr inbounds nuw %struct.hwloc_cpukinds_info_summary, ptr %146, i32 0, i32 3
  %148 = load ptr, ptr %147, align 8, !tbaa !58
  %149 = load i32, ptr %5, align 4, !tbaa !35
  %150 = zext i32 %149 to i64
  %151 = getelementptr inbounds nuw %struct.hwloc_cpukind_info_summary, ptr %148, i64 %150
  %152 = getelementptr inbounds nuw %struct.hwloc_cpukind_info_summary, ptr %151, i32 0, i32 2
  %153 = load i32, ptr %152, align 4, !tbaa !86
  %154 = icmp ne i32 %153, 0
  br i1 %154, label %158, label %155

155:                                              ; preds = %120
  %156 = load ptr, ptr %4, align 8, !tbaa !76
  %157 = getelementptr inbounds nuw %struct.hwloc_cpukinds_info_summary, ptr %156, i32 0, i32 1
  store i32 0, ptr %157, align 4, !tbaa !79
  br label %158

158:                                              ; preds = %155, %120
  %159 = load ptr, ptr %4, align 8, !tbaa !76
  %160 = getelementptr inbounds nuw %struct.hwloc_cpukinds_info_summary, ptr %159, i32 0, i32 3
  %161 = load ptr, ptr %160, align 8, !tbaa !58
  %162 = load i32, ptr %5, align 4, !tbaa !35
  %163 = zext i32 %162 to i64
  %164 = getelementptr inbounds nuw %struct.hwloc_cpukind_info_summary, ptr %161, i64 %163
  %165 = getelementptr inbounds nuw %struct.hwloc_cpukind_info_summary, ptr %164, i32 0, i32 1
  %166 = load i32, ptr %165, align 4, !tbaa !84
  %167 = icmp ne i32 %166, 0
  br i1 %167, label %171, label %168

168:                                              ; preds = %158
  %169 = load ptr, ptr %4, align 8, !tbaa !76
  %170 = getelementptr inbounds nuw %struct.hwloc_cpukinds_info_summary, ptr %169, i32 0, i32 0
  store i32 0, ptr %170, align 8, !tbaa !78
  br label %171

171:                                              ; preds = %168, %158
  %172 = load ptr, ptr %4, align 8, !tbaa !76
  %173 = getelementptr inbounds nuw %struct.hwloc_cpukinds_info_summary, ptr %172, i32 0, i32 3
  %174 = load ptr, ptr %173, align 8, !tbaa !58
  %175 = load i32, ptr %5, align 4, !tbaa !35
  %176 = zext i32 %175 to i64
  %177 = getelementptr inbounds nuw %struct.hwloc_cpukind_info_summary, ptr %174, i64 %176
  %178 = getelementptr inbounds nuw %struct.hwloc_cpukind_info_summary, ptr %177, i32 0, i32 0
  %179 = load i32, ptr %178, align 4, !tbaa !87
  %180 = icmp ne i32 %179, 0
  br i1 %180, label %184, label %181

181:                                              ; preds = %171
  %182 = load ptr, ptr %4, align 8, !tbaa !76
  %183 = getelementptr inbounds nuw %struct.hwloc_cpukinds_info_summary, ptr %182, i32 0, i32 2
  store i32 0, ptr %183, align 8, !tbaa !80
  br label %184

184:                                              ; preds = %181, %171
  call void @llvm.lifetime.end.p0(i64 8, ptr %7) #14
  br label %185

185:                                              ; preds = %184
  %186 = load i32, ptr %5, align 4, !tbaa !35
  %187 = add i32 %186, 1
  store i32 %187, ptr %5, align 4, !tbaa !35
  br label %15, !llvm.loop !89

188:                                              ; preds = %15
  call void @llvm.lifetime.end.p0(i64 4, ptr %6) #14
  call void @llvm.lifetime.end.p0(i64 4, ptr %5) #14
  ret void
}