; Function Attrs: nofree nounwind uwtable
define internal fastcc void @hwloc__cpukinds_summarize_info(ptr noundef readonly captures(none) %0, ptr noundef nonnull captures(none) initializes((0, 12)) %1) unnamed_addr #14 {
  store i32 1, ptr %1, align 8, !tbaa !65
  %3 = getelementptr inbounds nuw i8, ptr %1, i64 4
  store i32 1, ptr %3, align 4, !tbaa !70
  %4 = getelementptr inbounds nuw i8, ptr %1, i64 8
  store i32 1, ptr %4, align 8, !tbaa !59
  %5 = getelementptr inbounds nuw i8, ptr %0, i64 760
  %6 = load i32, ptr %5, align 8, !tbaa !3
  %.not56 = icmp eq i32 %6, 0
  br i1 %.not56, label %._crit_edge55, label %.lr.ph54

.lr.ph54:                                         ; preds = %2
  %7 = getelementptr inbounds nuw i8, ptr %0, i64 768
  %8 = getelementptr inbounds nuw i8, ptr %1, i64 16
  br label %9

9:                                                ; preds = %.lr.ph54, %64
  %indvars.iv59 = phi i64 [ 0, %.lr.ph54 ], [ %indvars.iv.next60, %64 ]
  %10 = load ptr, ptr %7, align 8, !tbaa !31
  %11 = getelementptr inbounds nuw %struct.hwloc_internal_cpukind_s, ptr %10, i64 %indvars.iv59, i32 4
  %12 = getelementptr inbounds nuw i8, ptr %11, i64 8
  %13 = load i32, ptr %12, align 8, !tbaa !80
  %.not57 = icmp eq i32 %13, 0
  br i1 %.not57, label %._crit_edge, label %.lr.ph

.lr.ph:                                           ; preds = %9, %48
  %indvars.iv = phi i64 [ %indvars.iv.next, %48 ], [ 0, %9 ]
  %14 = load ptr, ptr %11, align 8, !tbaa !81
  %15 = getelementptr inbounds nuw %struct.hwloc_info_s, ptr %14, i64 %indvars.iv
  %16 = load ptr, ptr %15, align 8, !tbaa !77
  %17 = tail call i32 @strcmp(ptr noundef nonnull dereferenceable(1) %16, ptr noundef nonnull dereferenceable(16) @.str.18) #24
  %.not46 = icmp eq i32 %17, 0
  br i1 %.not46, label %18, label %25

18:                                               ; preds = %.lr.ph
  %19 = getelementptr inbounds nuw i8, ptr %15, i64 8
  %20 = load ptr, ptr %19, align 8, !tbaa !79
  %21 = tail call i64 @strtol(ptr noundef nonnull captures(none) %20, ptr noundef null, i32 noundef 10) #22
  %22 = trunc i64 %21 to i32
  %23 = load ptr, ptr %8, align 8, !tbaa !56
  %24 = getelementptr inbounds nuw %struct.hwloc_cpukind_info_summary, ptr %23, i64 %indvars.iv59, i32 1
  store i32 %22, ptr %24, align 4, !tbaa !62
  br label %48

25:                                               ; preds = %.lr.ph
  %26 = tail call i32 @strcmp(ptr noundef nonnull dereferenceable(1) %16, ptr noundef nonnull dereferenceable(17) @.str.19) #24
  %.not47 = icmp eq i32 %26, 0
  br i1 %.not47, label %27, label %34

27:                                               ; preds = %25
  %28 = getelementptr inbounds nuw i8, ptr %15, i64 8
  %29 = load ptr, ptr %28, align 8, !tbaa !79
  %30 = tail call i64 @strtol(ptr noundef nonnull captures(none) %29, ptr noundef null, i32 noundef 10) #22
  %31 = trunc i64 %30 to i32
  %32 = load ptr, ptr %8, align 8, !tbaa !56
  %33 = getelementptr inbounds nuw %struct.hwloc_cpukind_info_summary, ptr %32, i64 %indvars.iv59, i32 2
  store i32 %31, ptr %33, align 4, !tbaa !64
  br label %48

34:                                               ; preds = %25
  %35 = tail call i32 @strcmp(ptr noundef nonnull dereferenceable(1) %16, ptr noundef nonnull dereferenceable(9) @.str.20) #24
  %.not48 = icmp eq i32 %35, 0
  br i1 %.not48, label %36, label %48

36:                                               ; preds = %34
  %37 = getelementptr inbounds nuw i8, ptr %15, i64 8
  %38 = load ptr, ptr %37, align 8, !tbaa !79
  %39 = tail call i32 @strcmp(ptr noundef nonnull dereferenceable(1) %38, ptr noundef nonnull dereferenceable(10) @.str.21) #24
  %.not49 = icmp eq i32 %39, 0
  br i1 %.not49, label %40, label %43

40:                                               ; preds = %36
  %41 = load ptr, ptr %8, align 8, !tbaa !56
  %42 = getelementptr inbounds nuw %struct.hwloc_cpukind_info_summary, ptr %41, i64 %indvars.iv59
  store i32 1, ptr %42, align 4, !tbaa !60
  br label %48

43:                                               ; preds = %36
  %44 = tail call i32 @strcmp(ptr noundef nonnull dereferenceable(1) %38, ptr noundef nonnull dereferenceable(10) @.str.22) #24
  %.not50 = icmp eq i32 %44, 0
  br i1 %.not50, label %45, label %48

45:                                               ; preds = %43
  %46 = load ptr, ptr %8, align 8, !tbaa !56
  %47 = getelementptr inbounds nuw %struct.hwloc_cpukind_info_summary, ptr %46, i64 %indvars.iv59
  store i32 2, ptr %47, align 4, !tbaa !60
  br label %48

48:                                               ; preds = %27, %40, %45, %43, %34, %18
  %indvars.iv.next = add nuw nsw i64 %indvars.iv, 1
  %49 = load i32, ptr %12, align 8, !tbaa !80
  %50 = zext i32 %49 to i64
  %51 = icmp samesign ult i64 %indvars.iv.next, %50
  br i1 %51, label %.lr.ph, label %._crit_edge, !llvm.loop !85

._crit_edge:                                      ; preds = %48, %9
  %52 = load ptr, ptr %8, align 8, !tbaa !56
  %53 = getelementptr inbounds nuw %struct.hwloc_cpukind_info_summary, ptr %52, i64 %indvars.iv59
  %54 = getelementptr inbounds nuw %struct.hwloc_cpukind_info_summary, ptr %52, i64 %indvars.iv59, i32 2
  %55 = load i32, ptr %54, align 4, !tbaa !64
  %.not = icmp eq i32 %55, 0
  br i1 %.not, label %56, label %57

56:                                               ; preds = %._crit_edge
  store i32 0, ptr %3, align 4, !tbaa !70
  br label %57

57:                                               ; preds = %56, %._crit_edge
  %58 = getelementptr inbounds nuw %struct.hwloc_cpukind_info_summary, ptr %52, i64 %indvars.iv59, i32 1
  %59 = load i32, ptr %58, align 4, !tbaa !62
  %.not44 = icmp eq i32 %59, 0
  br i1 %.not44, label %60, label %61

60:                                               ; preds = %57
  store i32 0, ptr %1, align 8, !tbaa !65
  br label %61

61:                                               ; preds = %60, %57
  %62 = load i32, ptr %53, align 4, !tbaa !60
  %.not45 = icmp eq i32 %62, 0
  br i1 %.not45, label %63, label %64

63:                                               ; preds = %61
  store i32 0, ptr %4, align 8, !tbaa !59
  br label %64

64:                                               ; preds = %63, %61
  %indvars.iv.next60 = add nuw nsw i64 %indvars.iv59, 1
  %65 = load i32, ptr %5, align 8, !tbaa !3
  %66 = zext i32 %65 to i64
  %67 = icmp samesign ult i64 %indvars.iv.next60, %66
  br i1 %67, label %9, label %._crit_edge55, !llvm.loop !86

._crit_edge55:                                    ; preds = %64, %2
  ret void
}